target datalayout = "e-m:e-p270:32:32-p271:32:32-p272:64:64-i64:64-i128:128-f80:128-n8:16:32:64-S128"
target triple = "x86_64-pc-linux-gnu"

%struct._phpdbg_element_t = type { ptr, i64, i32 }

@elements = internal constant [4 x %struct._phpdbg_element_t] [%struct._phpdbg_element_t { ptr @.str.56, i64 6, i32 0 }, %struct._phpdbg_element_t { ptr @.str.57, i64 5, i32 1 }, %struct._phpdbg_element_t { ptr @.str.58, i64 6, i32 2 }, %struct._phpdbg_element_t zeroinitializer], align 16

; Function Attrs: nounwind uwtable
define i32 @phpdbg_get_element(ptr noundef %0, i64 noundef %1) #0 {
  %3 = alloca i32, align 4
  %4 = alloca ptr, align 8
  %5 = alloca i64, align 8
  %6 = alloca ptr, align 8
  store ptr %0, ptr %4, align 8
  store i64 %1, ptr %5, align 8
  store ptr @elements, ptr %6, align 8
  br label %7

7:                                                ; preds = %36, %2
  %8 = load ptr, ptr %6, align 8
  %9 = icmp ne ptr %8, null
  br i1 %9, label %10, label %15

10:                                               ; preds = %7
  %11 = load ptr, ptr %6, align 8
  %12 = getelementptr inbounds %struct._phpdbg_element_t, ptr %11, i32 0, i32 0
  %13 = load ptr, ptr %12, align 8
  %14 = icmp ne ptr %13, null
  br label %15

15:                                               ; preds = %10, %7
  %16 = phi i1 [ false, %7 ], [ %14, %10 ]
  br i1 %16, label %17, label %39

17:                                               ; preds = %15
  %18 = load i64, ptr %5, align 8
  %19 = load ptr, ptr %6, align 8
  %20 = getelementptr inbounds %struct._phpdbg_element_t, ptr %19, i32 0, i32 1
  %21 = load i64, ptr %20, align 8
  %22 = icmp eq i64 %18, %21
  br i1 %22, label %23, label %36

23:                                               ; preds = %17
  %24 = load ptr, ptr %4, align 8
  %25 = load ptr, ptr %6, align 8
  %26 = getelementptr inbounds %struct._phpdbg_element_t, ptr %25, i32 0, i32 0
  %27 = load ptr, ptr %26, align 8
  %28 = load i64, ptr %5, align 8
  %29 = call i32 @strncasecmp(ptr noundef %24, ptr noundef %27, i64 noundef %28) #12
  %30 = icmp eq i32 %29, 0
  br i1 %30, label %31, label %35

31:                                               ; preds = %23
  %32 = load ptr, ptr %6, align 8
  %33 = getelementptr inbounds %struct._phpdbg_element_t, ptr %32, i32 0, i32 2
  %34 = load i32, ptr %33, align 8
  store i32 %34, ptr %3, align 4
  br label %40

35:                                               ; preds = %23
  br label %36

36:                                               ; preds = %35, %17
  %37 = load ptr, ptr %6, align 8
  %38 = getelementptr inbounds %struct._phpdbg_element_t, ptr %37, i32 1
  store ptr %38, ptr %6, align 8
  br label %7

39:                                               ; preds = %15
  store i32 -1, ptr %3, align 4
  br label %40

40:                                               ; preds = %39, %31
  %41 = load i32, ptr %3, align 4
  ret i32 %41
}