; Function Attrs: nofree nounwind memory(read) uwtable
define i32 @phpdbg_get_element(ptr nocapture noundef readonly %0, i64 noundef %1) local_unnamed_addr #11 {
  br label %3

3:                                                ; preds = %2, %14
  %4 = phi ptr [ @.str.56, %2 ], [ %16, %14 ]
  %.013 = phi ptr [ @elements, %2 ], [ %15, %14 ]
  %5 = getelementptr inbounds i8, ptr %.013, i64 8
  %6 = load i64, ptr %5, align 8
  %7 = icmp eq i64 %6, %1
  br i1 %7, label %8, label %14

8:                                                ; preds = %3
  %9 = tail call i32 @strncasecmp(ptr noundef %0, ptr noundef nonnull %4, i64 noundef %1) #24
  %10 = icmp eq i32 %9, 0
  br i1 %10, label %11, label %14

11:                                               ; preds = %8
  %12 = getelementptr inbounds i8, ptr %.013, i64 16
  %13 = load i32, ptr %12, align 8
  br label %.critedge

14:                                               ; preds = %8, %3
  %15 = getelementptr inbounds i8, ptr %.013, i64 24
  %16 = load ptr, ptr %15, align 8
  %.not = icmp eq ptr %16, null
  br i1 %.not, label %.critedge, label %3

.critedge:                                        ; preds = %14, %11
  %.09 = phi i32 [ %13, %11 ], [ -1, %14 ]
  ret i32 %.09
}